target datalayout = "e-m:e-p270:32:32-p271:32:32-p272:64:64-i64:64-i128:128-f80:128-n8:16:32:64-S128"
target triple = "x86_64-pc-linux-gnu"

%struct.ossl_cmp_ctx_st = type { ptr, ptr, ptr, i32, ptr, ptr, ptr, ptr, ptr, i32, ptr, ptr, i32, i32, i32, i32, i64, ptr, ptr, i32, i32, ptr, ptr, ptr, ptr, ptr, i32, i32, i32, ptr, ptr, ptr, ptr, ptr, i64, ptr, i32, i32, ptr, ptr, ptr, ptr, ptr, ptr, ptr, ptr, i32, i32, ptr, ptr, i32, ptr, ptr, i32, ptr, ptr, i32, i32, ptr, ptr, i32, i32, ptr, ptr, i32, ptr, i32, ptr, i32, ptr, ptr, ptr, ptr, ptr, ptr }
%struct.ossl_cmp_msg_st = type { ptr, ptr, ptr, ptr, ptr, ptr }
%struct.ossl_cmp_pkibody_st = type { i32, %union.anon }
%union.anon = type { ptr }

@__const.OSSL_CMP_MSG_http_perform.content_type_pkix = private unnamed_addr constant [20 x i8] c"application/pkixcmp\00", align 16
@.str = private unnamed_addr constant [33 x i8] c"../openssl/crypto/cmp/cmp_http.c\00", align 1
@__func__.OSSL_CMP_MSG_http_perform = private unnamed_addr constant [26 x i8] c"OSSL_CMP_MSG_http_perform\00", align 1
@.str.1 = private unnamed_addr constant [7 x i8] c"Pragma\00", align 1
@.str.2 = private unnamed_addr constant [9 x i8] c"no-cache\00", align 1
@.str.3 = private unnamed_addr constant [3 x i8] c"%d\00", align 1
@.str.4 = private unnamed_addr constant [6 x i8] c"DEBUG\00", align 1
@.str.5 = private unnamed_addr constant [33 x i8] c"connecting to CMP server %s:%s%s\00", align 1
@.str.6 = private unnamed_addr constant [11 x i8] c" using TLS\00", align 1
@.str.7 = private unnamed_addr constant [1 x i8] zeroinitializer, align 1
@.str.8 = private unnamed_addr constant [3 x i8] c"%s\00", align 1
@.str.9 = private unnamed_addr constant [29 x i8] c"disconnected from CMP server\00", align 1
@.str.10 = private unnamed_addr constant [42 x i8] c"finished reading response from CMP server\00", align 1

; Function Attrs: inlinehint nounwind uwtable
define internal ptr @ossl_check_CONF_VALUE_freefunc_type(ptr noundef %0) #5 {
  %2 = alloca ptr, align 8
  store ptr %0, ptr %2, align 8, !tbaa !52
  %3 = load ptr, ptr %2, align 8, !tbaa !52
  ret ptr %3
}

; Function Attrs: inlinehint nounwind uwtable
define internal ptr @ossl_check_CONF_VALUE_sk_type(ptr noundef %0) #5 {
  %2 = alloca ptr, align 8
  store ptr %0, ptr %2, align 8, !tbaa !10
  %3 = load ptr, ptr %2, align 8, !tbaa !10
  ret ptr %3
}

; Function Attrs: nounwind uwtable
define internal i32 @keep_alive(i32 noundef %0, i32 noundef %1) #0 {
  %3 = alloca i32, align 4
  %4 = alloca i32, align 4
  store i32 %0, ptr %3, align 4, !tbaa !37
  store i32 %1, ptr %4, align 4, !tbaa !37
  %5 = load i32, ptr %3, align 4, !tbaa !37
  %6 = icmp ne i32 %5, 0
  br i1 %6, label %7, label %23

7:                                                ; preds = %2
  %8 = load i32, ptr %4, align 4, !tbaa !37
  %9 = icmp ne i32 %8, 0
  br i1 %9, label %10, label %23

10:                                               ; preds = %7
  %11 = load i32, ptr %4, align 4, !tbaa !37
  %12 = icmp ne i32 %11, 2
  br i1 %12, label %13, label %23

13:                                               ; preds = %10
  %14 = load i32, ptr %4, align 4, !tbaa !37
  %15 = icmp ne i32 %14, 4
  br i1 %15, label %16, label %23

16:                                               ; preds = %13
  %17 = load i32, ptr %4, align 4, !tbaa !37
  %18 = icmp ne i32 %17, 7
  br i1 %18, label %19, label %23

19:                                               ; preds = %16
  %20 = load i32, ptr %4, align 4, !tbaa !37
  %21 = icmp ne i32 %20, 25
  br i1 %21, label %22, label %23

22:                                               ; preds = %19
  store i32 0, ptr %3, align 4, !tbaa !37
  br label %23

23:                                               ; preds = %22, %19, %16, %13, %10, %7, %2
  %24 = load i32, ptr %3, align 4, !tbaa !37
  ret i32 %24
}

; Function Attrs: nounwind uwtable
define ptr @OSSL_CMP_MSG_http_perform(ptr noundef %0, ptr noundef %1) #0 {
  %3 = alloca ptr, align 8
  %4 = alloca ptr, align 8
  %5 = alloca ptr, align 8
  %6 = alloca [32 x i8], align 16
  %7 = alloca ptr, align 8
  %8 = alloca [20 x i8], align 16
  %9 = alloca i32, align 4
  %10 = alloca ptr, align 8
  %11 = alloca ptr, align 8
  %12 = alloca ptr, align 8
  %13 = alloca ptr, align 8
  %14 = alloca i32, align 4
  store ptr %0, ptr %4, align 8, !tbaa !3
  store ptr %1, ptr %5, align 8, !tbaa !8
  call void @llvm.lifetime.start.p0(i64 32, ptr %6) #6
  call void @llvm.memset.p0.i64(ptr align 16 %6, i8 0, i64 32, i1 false)
  call void @llvm.lifetime.start.p0(i64 8, ptr %7) #6
  store ptr null, ptr %7, align 8, !tbaa !10
  call void @llvm.lifetime.start.p0(i64 20, ptr %8) #6
  call void @llvm.memcpy.p0.p0.i64(ptr align 16 %8, ptr align 16 @__const.OSSL_CMP_MSG_http_perform.content_type_pkix, i64 20, i1 false)
  call void @llvm.lifetime.start.p0(i64 4, ptr %9) #6
  call void @llvm.lifetime.start.p0(i64 8, ptr %10) #6
  %15 = call ptr @OSSL_CMP_MSG_it()
  store ptr %15, ptr %10, align 8, !tbaa !12
  call void @llvm.lifetime.start.p0(i64 8, ptr %11) #6
  call void @llvm.lifetime.start.p0(i64 8, ptr %12) #6
  call void @llvm.lifetime.start.p0(i64 8, ptr %13) #6
  store ptr null, ptr %13, align 8, !tbaa !8
  %16 = load ptr, ptr %4, align 8, !tbaa !3
  %17 = icmp eq ptr %16, null
  br i1 %17, label %21, label %18

18:                                               ; preds = %2
  %19 = load ptr, ptr %5, align 8, !tbaa !8
  %20 = icmp eq ptr %19, null
  br i1 %20, label %21, label %22

21:                                               ; preds = %18, %2
  call void @ERR_new()
  call void @ERR_set_debug(ptr noundef @.str, i32 noundef 60, ptr noundef @__func__.OSSL_CMP_MSG_http_perform)
  call void (i32, i32, ptr, ...) @ERR_set_error(i32 noundef 58, i32 noundef 103, ptr noundef null)
  store ptr null, ptr %3, align 8
  store i32 1, ptr %14, align 4
  br label %140

22:                                               ; preds = %18
  %23 = call i32 @X509V3_add_value(ptr noundef @.str.1, ptr noundef @.str.2, ptr noundef %7)
  %24 = icmp ne i32 %23, 0
  br i1 %24, label %26, label %25

25:                                               ; preds = %22
  store ptr null, ptr %3, align 8
  store i32 1, ptr %14, align 4
  br label %140

26:                                               ; preds = %22
  %27 = load ptr, ptr %10, align 8, !tbaa !12
  %28 = load ptr, ptr %5, align 8, !tbaa !8
  %29 = call ptr @ASN1_item_i2d_mem_bio(ptr noundef %27, ptr noundef %28)
  store ptr %29, ptr %11, align 8, !tbaa !14
  %30 = icmp eq ptr %29, null
  br i1 %30, label %31, label %32

31:                                               ; preds = %26
  br label %135

32:                                               ; preds = %26
  %33 = load ptr, ptr %4, align 8, !tbaa !3
  %34 = getelementptr inbounds nuw %struct.ossl_cmp_ctx_st, ptr %33, i32 0, i32 9
  %35 = load i32, ptr %34, align 8, !tbaa !16
  %36 = icmp ne i32 %35, 0
  br i1 %36, label %37, label %43

37:                                               ; preds = %32
  %38 = getelementptr inbounds [32 x i8], ptr %6, i64 0, i64 0
  %39 = load ptr, ptr %4, align 8, !tbaa !3
  %40 = getelementptr inbounds nuw %struct.ossl_cmp_ctx_st, ptr %39, i32 0, i32 9
  %41 = load i32, ptr %40, align 8, !tbaa !16
  %42 = call i32 (ptr, i64, ptr, ...) @BIO_snprintf(ptr noundef %38, i64 noundef 32, ptr noundef @.str.3, i32 noundef %41)
  br label %43

43:                                               ; preds = %37, %32
  %44 = load ptr, ptr %4, align 8, !tbaa !3
  %45 = getelementptr inbounds nuw %struct.ossl_cmp_ctx_st, ptr %44, i32 0, i32 15
  %46 = load i32, ptr %45, align 4, !tbaa !36
  %47 = icmp sge i32 %46, 0
  br i1 %47, label %48, label %54

48:                                               ; preds = %43
  %49 = load ptr, ptr %4, align 8, !tbaa !3
  %50 = getelementptr inbounds nuw %struct.ossl_cmp_ctx_st, ptr %49, i32 0, i32 15
  %51 = load i32, ptr %50, align 4, !tbaa !36
  %52 = icmp ne i32 %51, 0
  %53 = zext i1 %52 to i32
  br label %59

54:                                               ; preds = %43
  %55 = load ptr, ptr %4, align 8, !tbaa !3
  %56 = call ptr @OSSL_CMP_CTX_get_http_cb_arg(ptr noundef %55)
  %57 = icmp ne ptr %56, null
  %58 = zext i1 %57 to i32
  br label %59

59:                                               ; preds = %54, %48
  %60 = phi i32 [ %53, %48 ], [ %58, %54 ]
  store i32 %60, ptr %9, align 4, !tbaa !37
  %61 = load ptr, ptr %4, align 8, !tbaa !3
  %62 = getelementptr inbounds nuw %struct.ossl_cmp_ctx_st, ptr %61, i32 0, i32 6
  %63 = load ptr, ptr %62, align 8, !tbaa !38
  %64 = icmp eq ptr %63, null
  br i1 %64, label %65, label %75

65:                                               ; preds = %59
  %66 = load ptr, ptr %4, align 8, !tbaa !3
  %67 = load ptr, ptr %4, align 8, !tbaa !3
  %68 = getelementptr inbounds nuw %struct.ossl_cmp_ctx_st, ptr %67, i32 0, i32 8
  %69 = load ptr, ptr %68, align 8, !tbaa !39
  %70 = getelementptr inbounds [32 x i8], ptr %6, i64 0, i64 0
  %71 = load i32, ptr %9, align 4, !tbaa !37
  %72 = icmp ne i32 %71, 0
  %73 = select i1 %72, ptr @.str.6, ptr @.str.7
  %74 = call i32 (i32, ptr, ptr, ptr, i32, ptr, ptr, ...) @ossl_cmp_print_log(i32 noundef 7, ptr noundef %66, ptr noundef @__func__.OSSL_CMP_MSG_http_perform, ptr noundef @.str, i32 noundef 75, ptr noundef @.str.4, ptr noundef @.str.5, ptr noundef %69, ptr noundef %70, ptr noundef %73)
  br label %75

75:                                               ; preds = %65, %59
  %76 = load ptr, ptr %4, align 8, !tbaa !3
  %77 = getelementptr inbounds nuw %struct.ossl_cmp_ctx_st, ptr %76, i32 0, i32 6
  %78 = load ptr, ptr %4, align 8, !tbaa !3
  %79 = getelementptr inbounds nuw %struct.ossl_cmp_ctx_st, ptr %78, i32 0, i32 8
  %80 = load ptr, ptr %79, align 8, !tbaa !39
  %81 = getelementptr inbounds [32 x i8], ptr %6, i64 0, i64 0
  %82 = load ptr, ptr %4, align 8, !tbaa !3
  %83 = getelementptr inbounds nuw %struct.ossl_cmp_ctx_st, ptr %82, i32 0, i32 7
  %84 = load ptr, ptr %83, align 8, !tbaa !40
  %85 = load i32, ptr %9, align 4, !tbaa !37
  %86 = load ptr, ptr %4, align 8, !tbaa !3
  %87 = getelementptr inbounds nuw %struct.ossl_cmp_ctx_st, ptr %86, i32 0, i32 10
  %88 = load ptr, ptr %87, align 8, !tbaa !41
  %89 = load ptr, ptr %4, align 8, !tbaa !3
  %90 = getelementptr inbounds nuw %struct.ossl_cmp_ctx_st, ptr %89, i32 0, i32 11
  %91 = load ptr, ptr %90, align 8, !tbaa !42
  %92 = load ptr, ptr %4, align 8, !tbaa !3
  %93 = getelementptr inbounds nuw %struct.ossl_cmp_ctx_st, ptr %92, i32 0, i32 17
  %94 = load ptr, ptr %93, align 8, !tbaa !43
  %95 = load ptr, ptr %4, align 8, !tbaa !3
  %96 = call ptr @OSSL_CMP_CTX_get_http_cb_arg(ptr noundef %95)
  %97 = load ptr, ptr %7, align 8, !tbaa !10
  %98 = getelementptr inbounds [20 x i8], ptr %8, i64 0, i64 0
  %99 = load ptr, ptr %11, align 8, !tbaa !14
  %100 = getelementptr inbounds [20 x i8], ptr %8, i64 0, i64 0
  %101 = load ptr, ptr %4, align 8, !tbaa !3
  %102 = getelementptr inbounds nuw %struct.ossl_cmp_ctx_st, ptr %101, i32 0, i32 13
  %103 = load i32, ptr %102, align 4, !tbaa !44
  %104 = load ptr, ptr %4, align 8, !tbaa !3
  %105 = getelementptr inbounds nuw %struct.ossl_cmp_ctx_st, ptr %104, i32 0, i32 12
  %106 = load i32, ptr %105, align 8, !tbaa !45
  %107 = load ptr, ptr %5, align 8, !tbaa !8
  %108 = getelementptr inbounds nuw %struct.ossl_cmp_msg_st, ptr %107, i32 0, i32 1
  %109 = load ptr, ptr %108, align 8, !tbaa !46
  %110 = getelementptr inbounds nuw %struct.ossl_cmp_pkibody_st, ptr %109, i32 0, i32 0
  %111 = load i32, ptr %110, align 8, !tbaa !50
  %112 = call i32 @keep_alive(i32 noundef %106, i32 noundef %111)
  %113 = call ptr @OSSL_HTTP_transfer(ptr noundef %77, ptr noundef %80, ptr noundef %81, ptr noundef %84, i32 noundef %85, ptr noundef %88, ptr noundef %91, ptr noundef null, ptr noundef null, ptr noundef %94, ptr noundef %96, i32 noundef 0, ptr noundef %97, ptr noundef %98, ptr noundef %99, ptr noundef %100, i32 noundef 1, i64 noundef 102400, i32 noundef %103, i32 noundef %112)
  store ptr %113, ptr %12, align 8, !tbaa !14
  %114 = load ptr, ptr %11, align 8, !tbaa !14
  %115 = call i32 @BIO_free(ptr noundef %114)
  %116 = load ptr, ptr %10, align 8, !tbaa !12
  %117 = load ptr, ptr %12, align 8, !tbaa !14
  %118 = call ptr @ASN1_item_d2i_bio(ptr noundef %116, ptr noundef %117, ptr noundef null)
  store ptr %118, ptr %13, align 8, !tbaa !8
  %119 = load ptr, ptr %12, align 8, !tbaa !14
  %120 = call i32 @BIO_free(ptr noundef %119)
  %121 = load ptr, ptr %4, align 8, !tbaa !3
  %122 = getelementptr inbounds nuw %struct.ossl_cmp_ctx_st, ptr %121, i32 0, i32 6
  %123 = load ptr, ptr %122, align 8, !tbaa !38
  %124 = icmp eq ptr %123, null
  br i1 %124, label %125, label %128

125:                                              ; preds = %75
  %126 = load ptr, ptr %4, align 8, !tbaa !3
  %127 = call i32 (i32, ptr, ptr, ptr, i32, ptr, ptr, ...) @ossl_cmp_print_log(i32 noundef 7, ptr noundef %126, ptr noundef @__func__.OSSL_CMP_MSG_http_perform, ptr noundef @.str, i32 noundef 93, ptr noundef @.str.4, ptr noundef @.str.8, ptr noundef @.str.9)
  br label %128

128:                                              ; preds = %125, %75
  %129 = load ptr, ptr %13, align 8, !tbaa !8
  %130 = icmp ne ptr %129, null
  br i1 %130, label %131, label %134

131:                                              ; preds = %128
  %132 = load ptr, ptr %4, align 8, !tbaa !3
  %133 = call i32 (i32, ptr, ptr, ptr, i32, ptr, ptr, ...) @ossl_cmp_print_log(i32 noundef 7, ptr noundef %132, ptr noundef @__func__.OSSL_CMP_MSG_http_perform, ptr noundef @.str, i32 noundef 100, ptr noundef @.str.4, ptr noundef @.str.8, ptr noundef @.str.10)
  br label %134

134:                                              ; preds = %131, %128
  br label %135

135:                                              ; preds = %134, %31
  %136 = load ptr, ptr %7, align 8, !tbaa !10
  %137 = call ptr @ossl_check_CONF_VALUE_sk_type(ptr noundef %136)
  %138 = call ptr @ossl_check_CONF_VALUE_freefunc_type(ptr noundef @X509V3_conf_free)
  call void @OPENSSL_sk_pop_free(ptr noundef %137, ptr noundef %138)
  %139 = load ptr, ptr %13, align 8, !tbaa !8
  store ptr %139, ptr %3, align 8
  store i32 1, ptr %14, align 4
  br label %140

140:                                              ; preds = %135, %25, %21
  call void @llvm.lifetime.end.p0(i64 8, ptr %13) #6
  call void @llvm.lifetime.end.p0(i64 8, ptr %12) #6
  call void @llvm.lifetime.end.p0(i64 8, ptr %11) #6
  call void @llvm.lifetime.end.p0(i64 8, ptr %10) #6
  call void @llvm.lifetime.end.p0(i64 4, ptr %9) #6
  call void @llvm.lifetime.end.p0(i64 20, ptr %8) #6
  call void @llvm.lifetime.end.p0(i64 8, ptr %7) #6
  call void @llvm.lifetime.end.p0(i64 32, ptr %6) #6
  %141 = load ptr, ptr %3, align 8
  ret ptr %141
}