; Function Attrs: nounwind uwtable
define ptr @OSSL_CMP_MSG_http_perform(ptr noundef %0, ptr noundef %1) local_unnamed_addr #0 {
  %3 = alloca [32 x i8], align 16
  %4 = alloca ptr, align 8
  %5 = alloca [20 x i8], align 16
  call void @llvm.lifetime.start.p0(i64 32, ptr nonnull %3) #5
  call void @llvm.memset.p0.i64(ptr noundef nonnull align 16 dereferenceable(32) %3, i8 0, i64 32, i1 false)
  call void @llvm.lifetime.start.p0(i64 8, ptr nonnull %4) #5
  store ptr null, ptr %4, align 8, !tbaa !3
  call void @llvm.lifetime.start.p0(i64 20, ptr nonnull %5) #5
  call void @llvm.memcpy.p0.p0.i64(ptr noundef nonnull align 16 dereferenceable(20) %5, ptr noundef nonnull align 16 dereferenceable(20) @__const.OSSL_CMP_MSG_http_perform.content_type_pkix, i64 20, i1 false)
  %6 = tail call ptr @OSSL_CMP_MSG_it() #5
  %7 = icmp eq ptr %0, null
  %8 = icmp eq ptr %1, null
  %or.cond = or i1 %7, %8
  br i1 %or.cond, label %9, label %10

9:                                                ; preds = %2
  tail call void @ERR_new() #5
  tail call void @ERR_set_debug(ptr noundef nonnull @.str, i32 noundef 60, ptr noundef nonnull @__func__.OSSL_CMP_MSG_http_perform) #5
  tail call void (i32, i32, ptr, ...) @ERR_set_error(i32 noundef 58, i32 noundef 103, ptr noundef null) #5
  br label %78

10:                                               ; preds = %2
  %11 = call i32 @X509V3_add_value(ptr noundef nonnull @.str.1, ptr noundef nonnull @.str.2, ptr noundef nonnull %4) #5
  %.not = icmp eq i32 %11, 0
  br i1 %.not, label %78, label %12

12:                                               ; preds = %10
  %13 = call ptr @ASN1_item_i2d_mem_bio(ptr noundef %6, ptr noundef nonnull %1) #5
  %14 = icmp eq ptr %13, null
  br i1 %14, label %76, label %15

15:                                               ; preds = %12
  %16 = getelementptr inbounds nuw i8, ptr %0, i64 72
  %17 = load i32, ptr %16, align 8, !tbaa !8
  %.not42 = icmp eq i32 %17, 0
  br i1 %.not42, label %20, label %18

18:                                               ; preds = %15
  %19 = call i32 (ptr, i64, ptr, ...) @BIO_snprintf(ptr noundef nonnull %3, i64 noundef 32, ptr noundef nonnull @.str.3, i32 noundef %17) #5
  br label %20

20:                                               ; preds = %18, %15
  %21 = getelementptr inbounds nuw i8, ptr %0, i64 108
  %22 = load i32, ptr %21, align 4, !tbaa !28
  %23 = icmp sgt i32 %22, -1
  br i1 %23, label %24, label %26

24:                                               ; preds = %20
  %25 = icmp ne i32 %22, 0
  br label %29

26:                                               ; preds = %20
  %27 = call ptr @OSSL_CMP_CTX_get_http_cb_arg(ptr noundef nonnull %0) #5
  %28 = icmp ne ptr %27, null
  br label %29

29:                                               ; preds = %26, %24
  %.in = phi i1 [ %25, %24 ], [ %28, %26 ]
  %30 = zext i1 %.in to i32
  %31 = getelementptr inbounds nuw i8, ptr %0, i64 48
  %32 = load ptr, ptr %31, align 8, !tbaa !29
  %33 = icmp eq ptr %32, null
  br i1 %33, label %34, label %39

34:                                               ; preds = %29
  %35 = getelementptr inbounds nuw i8, ptr %0, i64 64
  %36 = load ptr, ptr %35, align 8, !tbaa !30
  %37 = select i1 %.in, ptr @.str.6, ptr @.str.7
  %38 = call i32 (i32, ptr, ptr, ptr, i32, ptr, ptr, ...) @ossl_cmp_print_log(i32 noundef 7, ptr noundef nonnull %0, ptr noundef nonnull @__func__.OSSL_CMP_MSG_http_perform, ptr noundef nonnull @.str, i32 noundef 75, ptr noundef nonnull @.str.4, ptr noundef nonnull @.str.5, ptr noundef %36, ptr noundef nonnull %3, ptr noundef nonnull %37) #5
  br label %39

39:                                               ; preds = %34, %29
  %40 = getelementptr inbounds nuw i8, ptr %0, i64 64
  %41 = load ptr, ptr %40, align 8, !tbaa !30
  %42 = getelementptr inbounds nuw i8, ptr %0, i64 56
  %43 = load ptr, ptr %42, align 8, !tbaa !31
  %44 = getelementptr inbounds nuw i8, ptr %0, i64 80
  %45 = load ptr, ptr %44, align 8, !tbaa !32
  %46 = getelementptr inbounds nuw i8, ptr %0, i64 88
  %47 = load ptr, ptr %46, align 8, !tbaa !33
  %48 = getelementptr inbounds nuw i8, ptr %0, i64 120
  %49 = load ptr, ptr %48, align 8, !tbaa !34
  %50 = call ptr @OSSL_CMP_CTX_get_http_cb_arg(ptr noundef nonnull %0) #5
  %51 = load ptr, ptr %4, align 8, !tbaa !3
  %52 = getelementptr inbounds nuw i8, ptr %0, i64 100
  %53 = load i32, ptr %52, align 4, !tbaa !35
  %54 = getelementptr inbounds nuw i8, ptr %0, i64 96
  %55 = load i32, ptr %54, align 8, !tbaa !36
  %56 = getelementptr inbounds nuw i8, ptr %1, i64 8
  %57 = load ptr, ptr %56, align 8, !tbaa !37
  %58 = load i32, ptr %57, align 8, !tbaa !41
  %59 = icmp ne i32 %55, 0
  %60 = and i32 %58, -3
  %61 = icmp ne i32 %60, 0
  %or.cond3.i = and i1 %59, %61
  %62 = icmp ne i32 %58, 4
  %or.cond5.i = and i1 %62, %or.cond3.i
  %63 = icmp ne i32 %58, 7
  %or.cond7.i = and i1 %63, %or.cond5.i
  %64 = icmp ne i32 %58, 25
  %or.cond9.i = and i1 %64, %or.cond7.i
  %spec.select.i = select i1 %or.cond9.i, i32 0, i32 %55
  %65 = call ptr @OSSL_HTTP_transfer(ptr noundef nonnull %31, ptr noundef %41, ptr noundef nonnull %3, ptr noundef %43, i32 noundef %30, ptr noundef %45, ptr noundef %47, ptr noundef null, ptr noundef null, ptr noundef %49, ptr noundef %50, i32 noundef 0, ptr noundef %51, ptr noundef nonnull %5, ptr noundef nonnull %13, ptr noundef nonnull %5, i32 noundef 1, i64 noundef 102400, i32 noundef %53, i32 noundef %spec.select.i) #5
  %66 = call i32 @BIO_free(ptr noundef nonnull %13) #5
  %67 = call ptr @ASN1_item_d2i_bio(ptr noundef %6, ptr noundef %65, ptr noundef null) #5
  %68 = call i32 @BIO_free(ptr noundef %65) #5
  %69 = load ptr, ptr %31, align 8, !tbaa !29
  %70 = icmp eq ptr %69, null
  br i1 %70, label %71, label %73

71:                                               ; preds = %39
  %72 = call i32 (i32, ptr, ptr, ptr, i32, ptr, ptr, ...) @ossl_cmp_print_log(i32 noundef 7, ptr noundef nonnull %0, ptr noundef nonnull @__func__.OSSL_CMP_MSG_http_perform, ptr noundef nonnull @.str, i32 noundef 93, ptr noundef nonnull @.str.4, ptr noundef nonnull @.str.8, ptr noundef nonnull @.str.9) #5
  br label %73

73:                                               ; preds = %71, %39
  %.not43 = icmp eq ptr %67, null
  br i1 %.not43, label %76, label %74

74:                                               ; preds = %73
  %75 = call i32 (i32, ptr, ptr, ptr, i32, ptr, ptr, ...) @ossl_cmp_print_log(i32 noundef 7, ptr noundef nonnull %0, ptr noundef nonnull @__func__.OSSL_CMP_MSG_http_perform, ptr noundef nonnull @.str, i32 noundef 100, ptr noundef nonnull @.str.4, ptr noundef nonnull @.str.8, ptr noundef nonnull @.str.10) #5
  br label %76

76:                                               ; preds = %73, %74, %12
  %.0 = phi ptr [ null, %12 ], [ %67, %74 ], [ null, %73 ]
  %77 = load ptr, ptr %4, align 8, !tbaa !3
  call void @OPENSSL_sk_pop_free(ptr noundef %77, ptr noundef nonnull @X509V3_conf_free) #5
  br label %78

78:                                               ; preds = %10, %76, %9
  %.035 = phi ptr [ null, %9 ], [ %.0, %76 ], [ null, %10 ]
  call void @llvm.lifetime.end.p0(i64 20, ptr nonnull %5) #5
  call void @llvm.lifetime.end.p0(i64 8, ptr nonnull %4) #5
  call void @llvm.lifetime.end.p0(i64 32, ptr nonnull %3) #5
  ret ptr %.035
}